; Function Attrs: nounwind uwtable
define void @Cec2_ObjAddToFrontier(ptr noundef readonly captures(none) %0, ptr noundef %1, ptr noundef captures(none) %2, ptr noundef %3) local_unnamed_addr #2 {
  %5 = getelementptr i8, ptr %0, i64 32
  %.val13 = load ptr, ptr %5, align 8
  %6 = getelementptr i8, ptr %0, i64 416
  %.val14 = load ptr, ptr %6, align 8
  %7 = ptrtoint ptr %1 to i64
  %8 = ptrtoint ptr %.val13 to i64
  %9 = sub i64 %7, %8
  %10 = sdiv exact i64 %9, 12
  %sext.i = shl i64 %10, 32
  %11 = ashr exact i64 %sext.i, 30
  %12 = getelementptr inbounds i8, ptr %.val14, i64 %11
  %13 = load i32, ptr %12, align 4
  %14 = icmp sgt i32 %13, -1
  br i1 %14, label %96, label %15

15:                                               ; preds = %4
  %16 = tail call i32 @satoko_add_variable(ptr noundef %3, i8 noundef signext 0) #21
  %17 = getelementptr inbounds nuw i8, ptr %0, i64 424
  %18 = load ptr, ptr %17, align 8
  %.not = icmp eq ptr %18, null
  br i1 %.not, label %55, label %19

19:                                               ; preds = %15
  %.val = load ptr, ptr %5, align 8
  %20 = ptrtoint ptr %.val to i64
  %21 = sub i64 %7, %20
  %22 = sdiv exact i64 %21, 12
  %23 = trunc i64 %22 to i32
  %24 = getelementptr inbounds nuw i8, ptr %18, i64 4
  %25 = load i32, ptr %24, align 4
  %26 = load i32, ptr %18, align 8
  %27 = icmp eq i32 %25, %26
  br i1 %27, label %28, label %.Vec_IntGrow.exit10_crit_edge.i

.Vec_IntGrow.exit10_crit_edge.i:                  ; preds = %19
  %.phi.trans.insert.i = getelementptr inbounds nuw i8, ptr %18, i64 8
  %.pre.i = load ptr, ptr %.phi.trans.insert.i, align 8
  br label %Vec_IntPush.exit

28:                                               ; preds = %19
  %29 = icmp slt i32 %25, 16
  br i1 %29, label %30, label %38

30:                                               ; preds = %28
  %31 = getelementptr inbounds nuw i8, ptr %18, i64 8
  %32 = load ptr, ptr %31, align 8
  %.not9.i.i = icmp eq ptr %32, null
  br i1 %.not9.i.i, label %35, label %33

33:                                               ; preds = %30
  %34 = tail call dereferenceable_or_null(64) ptr @realloc(ptr noundef nonnull %32, i64 noundef 64) #23
  br label %Vec_IntGrow.exit.i

35:                                               ; preds = %30
  %36 = tail call noalias dereferenceable_or_null(64) ptr @malloc(i64 noundef 64) #22
  br label %Vec_IntGrow.exit.i

Vec_IntGrow.exit.i:                               ; preds = %35, %33
  %37 = phi ptr [ %34, %33 ], [ %36, %35 ]
  store ptr %37, ptr %31, align 8
  store i32 16, ptr %18, align 8
  br label %Vec_IntPush.exit

38:                                               ; preds = %28
  %39 = shl nuw nsw i32 %25, 1
  %40 = getelementptr inbounds nuw i8, ptr %18, i64 8
  %41 = load ptr, ptr %40, align 8
  %.not9.i9.i = icmp eq ptr %41, null
  %42 = zext nneg i32 %39 to i64
  %43 = shl nuw nsw i64 %42, 2
  br i1 %.not9.i9.i, label %46, label %44

44:                                               ; preds = %38
  %45 = tail call ptr @realloc(ptr noundef nonnull %41, i64 noundef %43) #23
  br label %48

46:                                               ; preds = %38
  %47 = tail call noalias ptr @malloc(i64 noundef %43) #22
  br label %48

48:                                               ; preds = %46, %44
  %49 = phi ptr [ %45, %44 ], [ %47, %46 ]
  store ptr %49, ptr %40, align 8
  store i32 %39, ptr %18, align 8
  br label %Vec_IntPush.exit

Vec_IntPush.exit:                                 ; preds = %.Vec_IntGrow.exit10_crit_edge.i, %Vec_IntGrow.exit.i, %48
  %50 = phi ptr [ %.pre.i, %.Vec_IntGrow.exit10_crit_edge.i ], [ %49, %48 ], [ %37, %Vec_IntGrow.exit.i ]
  %51 = load i32, ptr %24, align 4
  %52 = add nsw i32 %51, 1
  store i32 %52, ptr %24, align 4
  %53 = sext i32 %51 to i64
  %54 = getelementptr inbounds i32, ptr %50, i64 %53
  store i32 %23, ptr %54, align 4
  br label %55

55:                                               ; preds = %Vec_IntPush.exit, %15
  %.val15 = load ptr, ptr %5, align 8
  %.val16 = load ptr, ptr %6, align 8
  %56 = ptrtoint ptr %.val15 to i64
  %57 = sub i64 %7, %56
  %58 = sdiv exact i64 %57, 12
  %sext.i18 = shl i64 %58, 32
  %59 = ashr exact i64 %sext.i18, 30
  %60 = getelementptr inbounds i8, ptr %.val16, i64 %59
  store i32 %16, ptr %60, align 4
  %.val17 = load i64, ptr %1, align 4
  %61 = and i64 %.val17, 2147483648
  %.not.i = icmp ne i64 %61, 0
  %62 = and i64 %.val17, 536870911
  %63 = icmp eq i64 %62, 536870911
  %narrow.i.not = or i1 %.not.i, %63
  br i1 %narrow.i.not, label %96, label %64

64:                                               ; preds = %55
  %65 = getelementptr inbounds nuw i8, ptr %2, i64 4
  %66 = load i32, ptr %65, align 4
  %67 = load i32, ptr %2, align 8
  %68 = icmp eq i32 %66, %67
  br i1 %68, label %69, label %.Vec_PtrGrow.exit11_crit_edge.i

.Vec_PtrGrow.exit11_crit_edge.i:                  ; preds = %64
  %.phi.trans.insert.i19 = getelementptr inbounds nuw i8, ptr %2, i64 8
  %.pre.i20 = load ptr, ptr %.phi.trans.insert.i19, align 8
  br label %Vec_PtrPush.exit

69:                                               ; preds = %64
  %70 = icmp slt i32 %66, 16
  br i1 %70, label %71, label %79

71:                                               ; preds = %69
  %72 = getelementptr inbounds nuw i8, ptr %2, i64 8
  %73 = load ptr, ptr %72, align 8
  %.not9.i.i21 = icmp eq ptr %73, null
  br i1 %.not9.i.i21, label %76, label %74

74:                                               ; preds = %71
  %75 = tail call dereferenceable_or_null(128) ptr @realloc(ptr noundef nonnull %73, i64 noundef 128) #23
  br label %Vec_PtrGrow.exit.i

76:                                               ; preds = %71
  %77 = tail call noalias dereferenceable_or_null(128) ptr @malloc(i64 noundef 128) #22
  br label %Vec_PtrGrow.exit.i

Vec_PtrGrow.exit.i:                               ; preds = %76, %74
  %78 = phi ptr [ %75, %74 ], [ %77, %76 ]
  store ptr %78, ptr %72, align 8
  store i32 16, ptr %2, align 8
  br label %Vec_PtrPush.exit

79:                                               ; preds = %69
  %80 = shl nuw nsw i32 %66, 1
  %81 = getelementptr inbounds nuw i8, ptr %2, i64 8
  %82 = load ptr, ptr %81, align 8
  %.not9.i10.i = icmp eq ptr %82, null
  %83 = zext nneg i32 %80 to i64
  %84 = shl nuw nsw i64 %83, 3
  br i1 %.not9.i10.i, label %87, label %85

85:                                               ; preds = %79
  %86 = tail call ptr @realloc(ptr noundef nonnull %82, i64 noundef %84) #23
  br label %89

87:                                               ; preds = %79
  %88 = tail call noalias ptr @malloc(i64 noundef %84) #22
  br label %89

89:                                               ; preds = %87, %85
  %90 = phi ptr [ %86, %85 ], [ %88, %87 ]
  store ptr %90, ptr %81, align 8
  store i32 %80, ptr %2, align 8
  br label %Vec_PtrPush.exit

Vec_PtrPush.exit:                                 ; preds = %.Vec_PtrGrow.exit11_crit_edge.i, %Vec_PtrGrow.exit.i, %89
  %91 = phi ptr [ %.pre.i20, %.Vec_PtrGrow.exit11_crit_edge.i ], [ %90, %89 ], [ %78, %Vec_PtrGrow.exit.i ]
  %92 = load i32, ptr %65, align 4
  %93 = add nsw i32 %92, 1
  store i32 %93, ptr %65, align 4
  %94 = sext i32 %92 to i64
  %95 = getelementptr inbounds ptr, ptr %91, i64 %94
  store ptr %1, ptr %95, align 8
  br label %96

96:                                               ; preds = %4, %Vec_PtrPush.exit, %55
  ret void
}